; Function Attrs: mustprogress nofree norecurse nosync nounwind memory(readwrite, inaccessiblemem: none) uwtable
define hidden void @_ZN10BlockBegin18remove_predecessorEPS_(ptr nocapture noundef nonnull align 8 dereferenceable(408) %0, ptr noundef readnone %1) local_unnamed_addr #7 align 2 {
  %3 = getelementptr inbounds i8, ptr %0, i64 160
  %4 = load i32, ptr %3, align 8
  %5 = icmp sgt i32 %4, 0
  br i1 %5, label %.lr.ph.i.lr.ph, label %_ZNK17GrowableArrayViewIP10BlockBeginE4findERKS1_.exit.thread

.lr.ph.i.lr.ph:                                   ; preds = %2
  %6 = getelementptr inbounds i8, ptr %0, i64 168
  br label %.lr.ph.i

.lr.ph.i:                                         ; preds = %.lr.ph.i.lr.ph, %_ZN17GrowableArrayViewIP10BlockBeginE9remove_atEi.exit
  %7 = phi i32 [ %4, %.lr.ph.i.lr.ph ], [ %26, %_ZN17GrowableArrayViewIP10BlockBeginE9remove_atEi.exit ]
  %8 = load ptr, ptr %6, align 8
  %wide.trip.count.i = zext nneg i32 %7 to i64
  br label %9

9:                                                ; preds = %13, %.lr.ph.i
  %indvars.iv.i = phi i64 [ 0, %.lr.ph.i ], [ %indvars.iv.next.i, %13 ]
  %10 = getelementptr inbounds ptr, ptr %8, i64 %indvars.iv.i
  %11 = load ptr, ptr %10, align 8
  %12 = icmp eq ptr %11, %1
  br i1 %12, label %_ZNK17GrowableArrayViewIP10BlockBeginE4findERKS1_.exit, label %13

13:                                               ; preds = %9
  %indvars.iv.next.i = add nuw nsw i64 %indvars.iv.i, 1
  %exitcond.not.i = icmp eq i64 %indvars.iv.next.i, %wide.trip.count.i
  br i1 %exitcond.not.i, label %_ZNK17GrowableArrayViewIP10BlockBeginE4findERKS1_.exit.thread, label %9, !llvm.loop !11

_ZNK17GrowableArrayViewIP10BlockBeginE4findERKS1_.exit: ; preds = %9
  %14 = trunc nuw nsw i64 %indvars.iv.i to i32
  %.06.i1 = add nuw nsw i32 %14, 1
  %15 = icmp slt i32 %.06.i1, %7
  br i1 %15, label %.lr.ph.i2, label %_ZN17GrowableArrayViewIP10BlockBeginE9remove_atEi.exit

.lr.ph.i2:                                        ; preds = %_ZNK17GrowableArrayViewIP10BlockBeginE4findERKS1_.exit
  %16 = and i64 %indvars.iv.i, 4294967295
  %17 = add nuw nsw i64 %16, 1
  br label %18

18:                                               ; preds = %18, %.lr.ph.i2
  %indvars.iv10.i = phi i64 [ %16, %.lr.ph.i2 ], [ %indvars.iv.next11.i, %18 ]
  %indvars.iv.i3 = phi i64 [ %17, %.lr.ph.i2 ], [ %indvars.iv.next.i4, %18 ]
  %19 = load ptr, ptr %6, align 8
  %20 = getelementptr inbounds ptr, ptr %19, i64 %indvars.iv.i3
  %21 = load ptr, ptr %20, align 8
  %22 = getelementptr inbounds ptr, ptr %19, i64 %indvars.iv10.i
  store ptr %21, ptr %22, align 8
  %indvars.iv.next.i4 = add nuw nsw i64 %indvars.iv.i3, 1
  %23 = load i32, ptr %3, align 8
  %24 = sext i32 %23 to i64
  %25 = icmp slt i64 %indvars.iv.next.i4, %24
  %indvars.iv.next11.i = add nuw nsw i64 %indvars.iv10.i, 1
  br i1 %25, label %18, label %_ZN17GrowableArrayViewIP10BlockBeginE9remove_atEi.exit, !llvm.loop !12

_ZN17GrowableArrayViewIP10BlockBeginE9remove_atEi.exit: ; preds = %18, %_ZNK17GrowableArrayViewIP10BlockBeginE4findERKS1_.exit
  %.lcssa.i = phi i32 [ %7, %_ZNK17GrowableArrayViewIP10BlockBeginE4findERKS1_.exit ], [ %23, %18 ]
  %26 = add nsw i32 %.lcssa.i, -1
  store i32 %26, ptr %3, align 8
  %27 = icmp sgt i32 %.lcssa.i, 1
  br i1 %27, label %.lr.ph.i, label %_ZNK17GrowableArrayViewIP10BlockBeginE4findERKS1_.exit.thread, !llvm.loop !13

_ZNK17GrowableArrayViewIP10BlockBeginE4findERKS1_.exit.thread: ; preds = %_ZN17GrowableArrayViewIP10BlockBeginE9remove_atEi.exit, %13, %2
  ret void
}